; Function Attrs: nounwind uwtable
define range(i32 -1, 1) i32 @H5HF__space_delete(ptr nocapture noundef readonly %0) local_unnamed_addr #0 {
  %2 = getelementptr inbounds i8, ptr %0, i64 600
  %3 = load ptr, ptr %2, align 8
  %4 = getelementptr inbounds i8, ptr %0, i64 384
  %5 = load i64, ptr %4, align 8
  %6 = tail call i32 @H5FS_delete(ptr noundef %3, i64 noundef %5) #4
  %7 = icmp slt i32 %6, 0
  br i1 %7, label %8, label %12

8:                                                ; preds = %1
  %9 = load i64, ptr @H5E_HEAP_g, align 8
  %10 = load i64, ptr @H5E_CANTFREE_g, align 8
  %11 = tail call i32 (ptr, ptr, i32, i64, i64, ptr, ...) @H5E_printf_stack(ptr noundef nonnull @.str, ptr noundef nonnull @__func__.H5HF__space_delete, i32 noundef 516, i64 noundef %9, i64 noundef %10, ptr noundef nonnull @.str.12) #4
  br label %12

12:                                               ; preds = %1, %8
  %.0 = phi i32 [ -1, %8 ], [ 0, %1 ]
  ret i32 %.0
}